target datalayout = "e-m:e-p270:32:32-p271:32:32-p272:64:64-i64:64-i128:128-f80:128-n8:16:32:64-S128"
target triple = "x86_64-pc-linux-gnu"

%struct.mbedtls_ssl_ciphersuite_t = type { i32, ptr, i8, i8, i8, i8, i16, i16 }
%struct.mbedtls_cipher_info_t = type { ptr, i32 }

; Function Attrs: nounwind uwtable
define internal i32 @mbedtls_ssl_get_actual_mode(i32 noundef %0, i32 noundef %1) #0 {
  %3 = alloca i32, align 4
  %4 = alloca i32, align 4
  %5 = alloca i32, align 4
  store i32 %0, ptr %4, align 4, !tbaa !10
  store i32 %1, ptr %5, align 4, !tbaa !10
  %6 = load i32, ptr %5, align 4, !tbaa !10
  %7 = icmp eq i32 %6, 1
  br i1 %7, label %8, label %12

8:                                                ; preds = %2
  %9 = load i32, ptr %4, align 4, !tbaa !10
  %10 = icmp eq i32 %9, 1
  br i1 %10, label %11, label %12

11:                                               ; preds = %8
  store i32 2, ptr %3, align 4
  br label %14

12:                                               ; preds = %8, %2
  %13 = load i32, ptr %4, align 4, !tbaa !10
  store i32 %13, ptr %3, align 4
  br label %14

14:                                               ; preds = %12, %11
  %15 = load i32, ptr %3, align 4
  ret i32 %15
}

; Function Attrs: nounwind uwtable
define internal i32 @mbedtls_ssl_get_base_mode(i32 noundef %0) #0 {
  %2 = alloca i32, align 4
  %3 = alloca i32, align 4
  store i32 %0, ptr %3, align 4, !tbaa !10
  %4 = load i32, ptr %3, align 4, !tbaa !10
  %5 = icmp eq i32 %4, 2
  br i1 %5, label %6, label %7

6:                                                ; preds = %1
  store i32 1, ptr %2, align 4
  br label %18

7:                                                ; preds = %1
  %8 = load i32, ptr %3, align 4, !tbaa !10
  %9 = icmp eq i32 %8, 6
  br i1 %9, label %16, label %10

10:                                               ; preds = %7
  %11 = load i32, ptr %3, align 4, !tbaa !10
  %12 = icmp eq i32 %11, 8
  br i1 %12, label %16, label %13

13:                                               ; preds = %10
  %14 = load i32, ptr %3, align 4, !tbaa !10
  %15 = icmp eq i32 %14, 11
  br i1 %15, label %16, label %17

16:                                               ; preds = %13, %10, %7
  store i32 3, ptr %2, align 4
  br label %18

17:                                               ; preds = %13
  store i32 0, ptr %2, align 4
  br label %18

18:                                               ; preds = %17, %16, %6
  %19 = load i32, ptr %2, align 4
  ret i32 %19
}

; Function Attrs: inlinehint nounwind uwtable
define internal i32 @mbedtls_cipher_info_get_mode(ptr noundef %0) #3 {
  %2 = alloca i32, align 4
  %3 = alloca ptr, align 8
  store ptr %0, ptr %3, align 8, !tbaa !218
  %4 = load ptr, ptr %3, align 8, !tbaa !218
  %5 = icmp eq ptr %4, null
  br i1 %5, label %6, label %7

6:                                                ; preds = %1
  store i32 0, ptr %2, align 4
  br label %13

7:                                                ; preds = %1
  %8 = load ptr, ptr %3, align 8, !tbaa !218
  %9 = getelementptr inbounds nuw %struct.mbedtls_cipher_info_t, ptr %8, i32 0, i32 1
  %10 = load i32, ptr %9, align 8
  %11 = lshr i32 %10, 12
  %12 = and i32 %11, 15
  store i32 %12, ptr %2, align 4
  br label %13

13:                                               ; preds = %7, %6
  %14 = load i32, ptr %2, align 4
  ret i32 %14
}

; Function Attrs: nounwind uwtable
define hidden i32 @mbedtls_ssl_get_mode_from_ciphersuite(i32 noundef %0, ptr noundef %1) #0 {
  %3 = alloca i32, align 4
  %4 = alloca ptr, align 8
  %5 = alloca i32, align 4
  %6 = alloca ptr, align 8
  store i32 %0, ptr %3, align 4, !tbaa !10
  store ptr %1, ptr %4, align 8, !tbaa !74
  call void @llvm.lifetime.start.p0(i64 4, ptr %5) #11
  store i32 0, ptr %5, align 4, !tbaa !10
  call void @llvm.lifetime.start.p0(i64 8, ptr %6) #11
  %7 = load ptr, ptr %4, align 8, !tbaa !74
  %8 = getelementptr inbounds nuw %struct.mbedtls_ssl_ciphersuite_t, ptr %7, i32 0, i32 2
  %9 = load i8, ptr %8, align 8, !tbaa !217
  %10 = zext i8 %9 to i32
  %11 = call ptr @mbedtls_cipher_info_from_type(i32 noundef %10)
  store ptr %11, ptr %6, align 8, !tbaa !218
  %12 = load ptr, ptr %6, align 8, !tbaa !218
  %13 = icmp ne ptr %12, null
  br i1 %13, label %14, label %18

14:                                               ; preds = %2
  %15 = load ptr, ptr %6, align 8, !tbaa !218
  %16 = call i32 @mbedtls_cipher_info_get_mode(ptr noundef %15)
  %17 = call i32 @mbedtls_ssl_get_base_mode(i32 noundef %16)
  store i32 %17, ptr %5, align 4, !tbaa !10
  br label %18

18:                                               ; preds = %14, %2
  %19 = load i32, ptr %5, align 4, !tbaa !10
  %20 = load i32, ptr %3, align 4, !tbaa !10
  %21 = call i32 @mbedtls_ssl_get_actual_mode(i32 noundef %19, i32 noundef %20)
  call void @llvm.lifetime.end.p0(i64 8, ptr %6) #11
  call void @llvm.lifetime.end.p0(i64 4, ptr %5) #11
  ret i32 %21
}