; Function Attrs: nounwind uwtable
define hidden range(i32 0, 4) i32 @mbedtls_ssl_get_mode_from_ciphersuite(i32 noundef %0, ptr noundef readonly captures(none) %1) local_unnamed_addr #1 {
  %3 = getelementptr inbounds nuw i8, ptr %1, i64 16
  %4 = load i8, ptr %3, align 8, !tbaa !187
  %5 = zext i8 %4 to i32
  %6 = tail call ptr @mbedtls_cipher_info_from_type(i32 noundef %5) #26
  %.not = icmp eq ptr %6, null
  br i1 %.not, label %mbedtls_ssl_get_base_mode.exit, label %7

7:                                                ; preds = %2
  %8 = getelementptr i8, ptr %6, i64 8
  %.val = load i32, ptr %8, align 8
  %9 = lshr i32 %.val, 12
  %10 = and i32 %9, 15
  switch i32 %10, label %11 [
    i32 2, label %mbedtls_ssl_get_base_mode.exit
    i32 11, label %.fold.split.i
    i32 8, label %.fold.split.i
    i32 6, label %.fold.split.i
  ]

11:                                               ; preds = %7
  br label %mbedtls_ssl_get_base_mode.exit

.fold.split.i:                                    ; preds = %7, %7, %7
  br label %mbedtls_ssl_get_base_mode.exit

mbedtls_ssl_get_base_mode.exit:                   ; preds = %.fold.split.i, %11, %7, %2
  %12 = phi i1 [ false, %2 ], [ false, %11 ], [ true, %7 ], [ false, %.fold.split.i ]
  %.0 = phi i32 [ 0, %2 ], [ 0, %11 ], [ 1, %7 ], [ 3, %.fold.split.i ]
  %13 = icmp eq i32 %0, 1
  %or.cond.i = and i1 %13, %12
  %..i = select i1 %or.cond.i, i32 2, i32 %.0
  ret i32 %..i
}